target datalayout = "e-m:e-p270:32:32-p271:32:32-p272:64:64-i64:64-i128:128-f80:128-n8:16:32:64-S128"
target triple = "x86_64-unknown-linux-gnu"

%"class.std::__cxx11::basic_string" = type { %"struct.std::__cxx11::basic_string<char>::_Alloc_hider", i64, %union.anon.13 }
%"struct.std::__cxx11::basic_string<char>::_Alloc_hider" = type { ptr }
%union.anon.13 = type { i64, [8 x i8] }
%"struct.facebook::hermes::tracing::SynthTrace::Record" = type { ptr, %"class.std::chrono::duration" }
%"class.std::chrono::duration" = type { i64 }
%"struct.facebook::hermes::tracing::SynthTrace::BeginExecJSRecord" = type <{ %"struct.facebook::hermes::tracing::SynthTrace::Record", %"class.std::__cxx11::basic_string", %"struct.std::array", i8, [3 x i8] }>
%"struct.std::array" = type { [20 x i8] }

@_ZTIN8facebook6hermes7tracing10SynthTrace6RecordE = hidden constant { ptr, ptr } { ptr getelementptr inbounds (ptr, ptr @_ZTVN10__cxxabiv117__class_type_infoE, i64 2), ptr @_ZTSN8facebook6hermes7tracing10SynthTrace6RecordE }, align 8

; Function Attrs: mustprogress nounwind uwtable
define linkonce_odr noundef i32 @_ZSt8__memcmpIhhEiPKT_PKT0_m(ptr noundef %__first1, ptr noundef %__first2, i64 noundef %__num) #0 comdat {
entry:
  %__first1.addr = alloca ptr, align 8
  %__first2.addr = alloca ptr, align 8
  %__num.addr = alloca i64, align 8
  store ptr %__first1, ptr %__first1.addr, align 8
  store ptr %__first2, ptr %__first2.addr, align 8
  store i64 %__num, ptr %__num.addr, align 8
  %0 = load ptr, ptr %__first1.addr, align 8
  %1 = load ptr, ptr %__first2.addr, align 8
  %2 = load i64, ptr %__num.addr, align 8
  %mul = mul i64 1, %2
  %call = call i32 @memcmp(ptr noundef %0, ptr noundef %1, i64 noundef %mul) #13
  ret i32 %call
}

; Function Attrs: mustprogress uwtable
define linkonce_odr noundef zeroext i1 @_ZNSt7__equalILb1EE5equalIhEEbPKT_S4_S4_(ptr noundef %__first1, ptr noundef %__last1, ptr noundef %__first2) #1 comdat align 2 {
entry:
  %retval = alloca i1, align 1
  %__first1.addr = alloca ptr, align 8
  %__last1.addr = alloca ptr, align 8
  %__first2.addr = alloca ptr, align 8
  %__len = alloca i64, align 8
  store ptr %__first1, ptr %__first1.addr, align 8
  store ptr %__last1, ptr %__last1.addr, align 8
  store ptr %__first2, ptr %__first2.addr, align 8
  %0 = load ptr, ptr %__last1.addr, align 8
  %1 = load ptr, ptr %__first1.addr, align 8
  %sub.ptr.lhs.cast = ptrtoint ptr %0 to i64
  %sub.ptr.rhs.cast = ptrtoint ptr %1 to i64
  %sub.ptr.sub = sub i64 %sub.ptr.lhs.cast, %sub.ptr.rhs.cast
  store i64 %sub.ptr.sub, ptr %__len, align 8
  %2 = load i64, ptr %__len, align 8
  %tobool = icmp ne i64 %2, 0
  br i1 %tobool, label %if.then, label %if.end

if.then:                                          ; preds = %entry
  %3 = load ptr, ptr %__first1.addr, align 8
  %4 = load ptr, ptr %__first2.addr, align 8
  %5 = load i64, ptr %__len, align 8
  %call = call noundef i32 @_ZSt8__memcmpIhhEiPKT_PKT0_m(ptr noundef %3, ptr noundef %4, i64 noundef %5)
  %tobool1 = icmp ne i32 %call, 0
  %lnot = xor i1 %tobool1, true
  store i1 %lnot, ptr %retval, align 1
  br label %return

if.end:                                           ; preds = %entry
  store i1 true, ptr %retval, align 1
  br label %return

return:                                           ; preds = %if.end, %if.then
  %6 = load i1, ptr %retval, align 1
  ret i1 %6
}

; Function Attrs: mustprogress uwtable
define linkonce_odr noundef zeroext i1 @_ZSt12__equal_aux1IPKhS1_EbT_S2_T0_(ptr noundef %__first1, ptr noundef %__last1, ptr noundef %__first2) #1 comdat {
entry:
  %__first1.addr = alloca ptr, align 8
  %__last1.addr = alloca ptr, align 8
  %__first2.addr = alloca ptr, align 8
  %__simple = alloca i8, align 1
  store ptr %__first1, ptr %__first1.addr, align 8
  store ptr %__last1, ptr %__last1.addr, align 8
  store ptr %__first2, ptr %__first2.addr, align 8
  store i8 1, ptr %__simple, align 1
  %0 = load ptr, ptr %__first1.addr, align 8
  %1 = load ptr, ptr %__last1.addr, align 8
  %2 = load ptr, ptr %__first2.addr, align 8
  %call = call noundef zeroext i1 @_ZNSt7__equalILb1EE5equalIhEEbPKT_S4_S4_(ptr noundef %0, ptr noundef %1, ptr noundef %2)
  ret i1 %call
}

; Function Attrs: mustprogress nounwind uwtable
define linkonce_odr noundef ptr @_ZSt12__niter_baseIPKhET_S2_(ptr noundef %__it) #0 comdat {
entry:
  %__it.addr = alloca ptr, align 8
  store ptr %__it, ptr %__it.addr, align 8
  %0 = load ptr, ptr %__it.addr, align 8
  ret ptr %0
}

; Function Attrs: mustprogress nounwind uwtable
define linkonce_odr noundef ptr @_ZNSt14__array_traitsIhLm20EE6_S_ptrERA20_Kh(ptr noundef nonnull align 1 dereferenceable(20) %__t) #0 comdat align 2 {
entry:
  %__t.addr = alloca ptr, align 8
  store ptr %__t, ptr %__t.addr, align 8
  %0 = load ptr, ptr %__t.addr, align 8
  %arraydecay = getelementptr inbounds [20 x i8], ptr %0, i64 0, i64 0
  ret ptr %arraydecay
}

; Function Attrs: mustprogress uwtable
define linkonce_odr noundef zeroext i1 @_ZSt11__equal_auxIPKhS1_EbT_S2_T0_(ptr noundef %__first1, ptr noundef %__last1, ptr noundef %__first2) #1 comdat {
entry:
  %__first1.addr = alloca ptr, align 8
  %__last1.addr = alloca ptr, align 8
  %__first2.addr = alloca ptr, align 8
  store ptr %__first1, ptr %__first1.addr, align 8
  store ptr %__last1, ptr %__last1.addr, align 8
  store ptr %__first2, ptr %__first2.addr, align 8
  %0 = load ptr, ptr %__first1.addr, align 8
  %call = call noundef ptr @_ZSt12__niter_baseIPKhET_S2_(ptr noundef %0) #13
  %1 = load ptr, ptr %__last1.addr, align 8
  %call1 = call noundef ptr @_ZSt12__niter_baseIPKhET_S2_(ptr noundef %1) #13
  %2 = load ptr, ptr %__first2.addr, align 8
  %call2 = call noundef ptr @_ZSt12__niter_baseIPKhET_S2_(ptr noundef %2) #13
  %call3 = call noundef zeroext i1 @_ZSt12__equal_aux1IPKhS1_EbT_S2_T0_(ptr noundef %call, ptr noundef %call1, ptr noundef %call2)
  ret i1 %call3
}

; Function Attrs: mustprogress nounwind uwtable
define linkonce_odr noundef ptr @_ZNKSt5arrayIhLm20EE4dataEv(ptr noundef nonnull align 1 dereferenceable(20) %this) #0 comdat align 2 {
entry:
  %this.addr = alloca ptr, align 8
  store ptr %this, ptr %this.addr, align 8
  %this1 = load ptr, ptr %this.addr, align 8
  %_M_elems = getelementptr inbounds %"struct.std::array", ptr %this1, i32 0, i32 0
  %call = call noundef ptr @_ZNSt14__array_traitsIhLm20EE6_S_ptrERA20_Kh(ptr noundef nonnull align 1 dereferenceable(20) %_M_elems) #13
  ret ptr %call
}

; Function Attrs: mustprogress uwtable
define linkonce_odr noundef zeroext i1 @_ZSt5equalIPKhS1_EbT_S2_T0_(ptr noundef %__first1, ptr noundef %__last1, ptr noundef %__first2) #1 comdat {
entry:
  %__first1.addr = alloca ptr, align 8
  %__last1.addr = alloca ptr, align 8
  %__first2.addr = alloca ptr, align 8
  store ptr %__first1, ptr %__first1.addr, align 8
  store ptr %__last1, ptr %__last1.addr, align 8
  store ptr %__first2, ptr %__first2.addr, align 8
  %0 = load ptr, ptr %__first1.addr, align 8
  %1 = load ptr, ptr %__last1.addr, align 8
  %2 = load ptr, ptr %__first2.addr, align 8
  %call = call noundef zeroext i1 @_ZSt11__equal_auxIPKhS1_EbT_S2_T0_(ptr noundef %0, ptr noundef %1, ptr noundef %2)
  ret i1 %call
}

; Function Attrs: mustprogress nounwind uwtable
define linkonce_odr noundef ptr @_ZNKSt5arrayIhLm20EE3endEv(ptr noundef nonnull align 1 dereferenceable(20) %this) #0 comdat align 2 {
entry:
  %this.addr = alloca ptr, align 8
  store ptr %this, ptr %this.addr, align 8
  %this1 = load ptr, ptr %this.addr, align 8
  %call = call noundef ptr @_ZNKSt5arrayIhLm20EE4dataEv(ptr noundef nonnull align 1 dereferenceable(20) %this1) #13
  %add.ptr = getelementptr inbounds i8, ptr %call, i64 20
  ret ptr %add.ptr
}

; Function Attrs: mustprogress nounwind uwtable
define linkonce_odr noundef ptr @_ZNKSt5arrayIhLm20EE5beginEv(ptr noundef nonnull align 1 dereferenceable(20) %this) #0 comdat align 2 {
entry:
  %this.addr = alloca ptr, align 8
  store ptr %this, ptr %this.addr, align 8
  %this1 = load ptr, ptr %this.addr, align 8
  %call = call noundef ptr @_ZNKSt5arrayIhLm20EE4dataEv(ptr noundef nonnull align 1 dereferenceable(20) %this1) #13
  ret ptr %call
}

; Function Attrs: noreturn nounwind uwtable
define linkonce_odr hidden void @__clang_call_terminate(ptr noundef %0) #7 comdat {
  %2 = call ptr @__cxa_begin_catch(ptr %0) #13
  call void @_ZSt9terminatev() #16
  unreachable
}

; Function Attrs: mustprogress nounwind uwtable
define linkonce_odr noundef i32 @_ZNSt11char_traitsIcE7compareEPKcS2_m(ptr noundef %__s1, ptr noundef %__s2, i64 noundef %__n) #0 comdat align 2 {
entry:
  %retval = alloca i32, align 4
  %__s1.addr = alloca ptr, align 8
  %__s2.addr = alloca ptr, align 8
  %__n.addr = alloca i64, align 8
  store ptr %__s1, ptr %__s1.addr, align 8
  store ptr %__s2, ptr %__s2.addr, align 8
  store i64 %__n, ptr %__n.addr, align 8
  %0 = load i64, ptr %__n.addr, align 8
  %cmp = icmp eq i64 %0, 0
  br i1 %cmp, label %if.then, label %if.end

if.then:                                          ; preds = %entry
  store i32 0, ptr %retval, align 4
  br label %return

if.end:                                           ; preds = %entry
  %1 = load ptr, ptr %__s1.addr, align 8
  %2 = load ptr, ptr %__s2.addr, align 8
  %3 = load i64, ptr %__n.addr, align 8
  %call = call i32 @memcmp(ptr noundef %1, ptr noundef %2, i64 noundef %3) #13
  store i32 %call, ptr %retval, align 4
  br label %return

return:                                           ; preds = %if.end, %if.then
  %4 = load i32, ptr %retval, align 4
  ret i32 %4
}

; Function Attrs: mustprogress uwtable
define linkonce_odr noundef zeroext i1 @_ZSteqIhLm20EEbRKSt5arrayIT_XT0_EES4_(ptr noundef nonnull align 1 dereferenceable(20) %__one, ptr noundef nonnull align 1 dereferenceable(20) %__two) #1 comdat {
entry:
  %__one.addr = alloca ptr, align 8
  %__two.addr = alloca ptr, align 8
  store ptr %__one, ptr %__one.addr, align 8
  store ptr %__two, ptr %__two.addr, align 8
  %0 = load ptr, ptr %__one.addr, align 8
  %call = call noundef ptr @_ZNKSt5arrayIhLm20EE5beginEv(ptr noundef nonnull align 1 dereferenceable(20) %0) #13
  %1 = load ptr, ptr %__one.addr, align 8
  %call1 = call noundef ptr @_ZNKSt5arrayIhLm20EE3endEv(ptr noundef nonnull align 1 dereferenceable(20) %1) #13
  %2 = load ptr, ptr %__two.addr, align 8
  %call2 = call noundef ptr @_ZNKSt5arrayIhLm20EE5beginEv(ptr noundef nonnull align 1 dereferenceable(20) %2) #13
  %call3 = call noundef zeroext i1 @_ZSt5equalIPKhS1_EbT_S2_T0_(ptr noundef %call, ptr noundef %call1, ptr noundef %call2)
  ret i1 %call3
}

; Function Attrs: mustprogress nounwind uwtable
define linkonce_odr noundef zeroext i1 @_ZSteqIcEN9__gnu_cxx11__enable_ifIXsr9__is_charIT_EE7__valueEbE6__typeERKNSt7__cxx1112basic_stringIS2_St11char_traitsIS2_ESaIS2_EEESC_(ptr noundef nonnull align 8 dereferenceable(32) %__lhs, ptr noundef nonnull align 8 dereferenceable(32) %__rhs) #0 comdat personality ptr @__gxx_personality_v0 {
entry:
  %__lhs.addr = alloca ptr, align 8
  %__rhs.addr = alloca ptr, align 8
  store ptr %__lhs, ptr %__lhs.addr, align 8
  store ptr %__rhs, ptr %__rhs.addr, align 8
  %0 = load ptr, ptr %__lhs.addr, align 8
  %call = call noundef i64 @_ZNKSt7__cxx1112basic_stringIcSt11char_traitsIcESaIcEE4sizeEv(ptr noundef nonnull align 8 dereferenceable(32) %0) #13
  %1 = load ptr, ptr %__rhs.addr, align 8
  %call1 = call noundef i64 @_ZNKSt7__cxx1112basic_stringIcSt11char_traitsIcESaIcEE4sizeEv(ptr noundef nonnull align 8 dereferenceable(32) %1) #13
  %cmp = icmp eq i64 %call, %call1
  br i1 %cmp, label %land.rhs, label %land.end

land.rhs:                                         ; preds = %entry
  %2 = load ptr, ptr %__lhs.addr, align 8
  %call2 = call noundef ptr @_ZNKSt7__cxx1112basic_stringIcSt11char_traitsIcESaIcEE4dataEv(ptr noundef nonnull align 8 dereferenceable(32) %2) #13
  %3 = load ptr, ptr %__rhs.addr, align 8
  %call3 = call noundef ptr @_ZNKSt7__cxx1112basic_stringIcSt11char_traitsIcESaIcEE4dataEv(ptr noundef nonnull align 8 dereferenceable(32) %3) #13
  %4 = load ptr, ptr %__lhs.addr, align 8
  %call4 = call noundef i64 @_ZNKSt7__cxx1112basic_stringIcSt11char_traitsIcESaIcEE4sizeEv(ptr noundef nonnull align 8 dereferenceable(32) %4) #13
  %call5 = invoke noundef i32 @_ZNSt11char_traitsIcE7compareEPKcS2_m(ptr noundef %call2, ptr noundef %call3, i64 noundef %call4)
          to label %invoke.cont unwind label %terminate.lpad

invoke.cont:                                      ; preds = %land.rhs
  %tobool = icmp ne i32 %call5, 0
  %lnot = xor i1 %tobool, true
  br label %land.end

land.end:                                         ; preds = %invoke.cont, %entry
  %5 = phi i1 [ false, %entry ], [ %lnot, %invoke.cont ]
  ret i1 %5

terminate.lpad:                                   ; preds = %land.rhs
  %6 = landingpad { ptr, i32 }
          catch ptr null
  %7 = extractvalue { ptr, i32 } %6, 0
  call void @__clang_call_terminate(ptr %7) #16
  unreachable
}

; Function Attrs: mustprogress uwtable
define linkonce_odr hidden noundef zeroext i1 @_ZNK8facebook6hermes7tracing10SynthTrace6RecordeqERKS3_(ptr noundef nonnull align 8 dereferenceable(16) %this, ptr noundef nonnull align 8 dereferenceable(16) %that) unnamed_addr #1 comdat align 2 {
entry:
  %this.addr = alloca ptr, align 8
  %that.addr = alloca ptr, align 8
  store ptr %this, ptr %this.addr, align 8
  store ptr %that, ptr %that.addr, align 8
  %this1 = load ptr, ptr %this.addr, align 8
  %vtable = load ptr, ptr %this1, align 8
  %vfn = getelementptr inbounds ptr, ptr %vtable, i64 2
  %0 = load ptr, ptr %vfn, align 8
  %call = call noundef i32 %0(ptr noundef nonnull align 8 dereferenceable(16) %this1)
  %1 = load ptr, ptr %that.addr, align 8
  %vtable2 = load ptr, ptr %1, align 8
  %vfn3 = getelementptr inbounds ptr, ptr %vtable2, i64 2
  %2 = load ptr, ptr %vfn3, align 8
  %call4 = call noundef i32 %2(ptr noundef nonnull align 8 dereferenceable(16) %1)
  %cmp = icmp eq i32 %call, %call4
  ret i1 %cmp
}

; Function Attrs: mustprogress uwtable
define hidden noundef zeroext i1 @_ZNK8facebook6hermes7tracing10SynthTrace17BeginExecJSRecordeqERKNS2_6RecordE(ptr noundef nonnull align 8 dereferenceable(72) %this, ptr noundef nonnull align 8 dereferenceable(16) %that) unnamed_addr #1 align 2 {
entry:
  %retval = alloca i1, align 1
  %this.addr = alloca ptr, align 8
  %that.addr = alloca ptr, align 8
  %thatCasted = alloca ptr, align 8
  store ptr %this, ptr %this.addr, align 8
  store ptr %that, ptr %that.addr, align 8
  %this1 = load ptr, ptr %this.addr, align 8
  %0 = load ptr, ptr %that.addr, align 8
  %call = call noundef zeroext i1 @_ZNK8facebook6hermes7tracing10SynthTrace6RecordeqERKS3_(ptr noundef nonnull align 8 dereferenceable(16) %this1, ptr noundef nonnull align 8 dereferenceable(16) %0)
  br i1 %call, label %if.end, label %if.then

if.then:                                          ; preds = %entry
  store i1 false, ptr %retval, align 1
  br label %return

if.end:                                           ; preds = %entry
  %1 = load ptr, ptr %that.addr, align 8
  %2 = call ptr @__dynamic_cast(ptr %1, ptr @_ZTIN8facebook6hermes7tracing10SynthTrace6RecordE, ptr @_ZTIN8facebook6hermes7tracing10SynthTrace17BeginExecJSRecordE, i64 0) #13
  %3 = icmp eq ptr %2, null
  br i1 %3, label %dynamic_cast.bad_cast, label %dynamic_cast.end

dynamic_cast.bad_cast:                            ; preds = %if.end
  call void @__cxa_bad_cast() #17
  unreachable

dynamic_cast.end:                                 ; preds = %if.end
  store ptr %2, ptr %thatCasted, align 8
  %sourceURL_ = getelementptr inbounds %"struct.facebook::hermes::tracing::SynthTrace::BeginExecJSRecord", ptr %this1, i32 0, i32 1
  %4 = load ptr, ptr %thatCasted, align 8
  %sourceURL_2 = getelementptr inbounds %"struct.facebook::hermes::tracing::SynthTrace::BeginExecJSRecord", ptr %4, i32 0, i32 1
  %call3 = call noundef zeroext i1 @_ZSteqIcEN9__gnu_cxx11__enable_ifIXsr9__is_charIT_EE7__valueEbE6__typeERKNSt7__cxx1112basic_stringIS2_St11char_traitsIS2_ESaIS2_EEESC_(ptr noundef nonnull align 8 dereferenceable(32) %sourceURL_, ptr noundef nonnull align 8 dereferenceable(32) %sourceURL_2) #13
  br i1 %call3, label %land.lhs.true, label %land.end

land.lhs.true:                                    ; preds = %dynamic_cast.end
  %sourceHash_ = getelementptr inbounds %"struct.facebook::hermes::tracing::SynthTrace::BeginExecJSRecord", ptr %this1, i32 0, i32 2
  %5 = load ptr, ptr %thatCasted, align 8
  %sourceHash_4 = getelementptr inbounds %"struct.facebook::hermes::tracing::SynthTrace::BeginExecJSRecord", ptr %5, i32 0, i32 2
  %call5 = call noundef zeroext i1 @_ZSteqIhLm20EEbRKSt5arrayIT_XT0_EES4_(ptr noundef nonnull align 1 dereferenceable(20) %sourceHash_, ptr noundef nonnull align 1 dereferenceable(20) %sourceHash_4)
  br i1 %call5, label %land.rhs, label %land.end

land.rhs:                                         ; preds = %land.lhs.true
  %sourceIsBytecode_ = getelementptr inbounds %"struct.facebook::hermes::tracing::SynthTrace::BeginExecJSRecord", ptr %this1, i32 0, i32 3
  %6 = load i8, ptr %sourceIsBytecode_, align 4
  %tobool = trunc i8 %6 to i1
  %conv = zext i1 %tobool to i32
  %7 = load ptr, ptr %thatCasted, align 8
  %sourceIsBytecode_6 = getelementptr inbounds %"struct.facebook::hermes::tracing::SynthTrace::BeginExecJSRecord", ptr %7, i32 0, i32 3
  %8 = load i8, ptr %sourceIsBytecode_6, align 4
  %tobool7 = trunc i8 %8 to i1
  %conv8 = zext i1 %tobool7 to i32
  %cmp = icmp eq i32 %conv, %conv8
  br label %land.end

land.end:                                         ; preds = %land.rhs, %land.lhs.true, %dynamic_cast.end
  %9 = phi i1 [ false, %land.lhs.true ], [ false, %dynamic_cast.end ], [ %cmp, %land.rhs ]
  store i1 %9, ptr %retval, align 1
  br label %return

return:                                           ; preds = %land.end, %if.then
  %10 = load i1, ptr %retval, align 1
  ret i1 %10
}