; Function Attrs: mustprogress uwtable
define hidden noundef zeroext i1 @_ZNK8facebook6hermes7tracing10SynthTrace17BeginExecJSRecordeqERKNS2_6RecordE(ptr noundef nonnull align 8 dereferenceable(72) %this, ptr noundef nonnull align 8 dereferenceable(16) %that) unnamed_addr #1 align 2 personality ptr @__gxx_personality_v0 {
entry:
  %vtable.i = load ptr, ptr %this, align 8
  %vfn.i = getelementptr inbounds i8, ptr %vtable.i, i64 16
  %0 = load ptr, ptr %vfn.i, align 8
  %call.i = tail call noundef i32 %0(ptr noundef nonnull align 8 dereferenceable(16) %this)
  %vtable2.i = load ptr, ptr %that, align 8
  %vfn3.i = getelementptr inbounds i8, ptr %vtable2.i, i64 16
  %1 = load ptr, ptr %vfn3.i, align 8
  %call4.i = tail call noundef i32 %1(ptr noundef nonnull align 8 dereferenceable(16) %that)
  %cmp.i = icmp eq i32 %call.i, %call4.i
  br i1 %cmp.i, label %if.end, label %return

if.end:                                           ; preds = %entry
  %2 = tail call ptr @__dynamic_cast(ptr nonnull %that, ptr nonnull @_ZTIN8facebook6hermes7tracing10SynthTrace6RecordE, ptr nonnull @_ZTIN8facebook6hermes7tracing10SynthTrace17BeginExecJSRecordE, i64 0) #23
  %3 = icmp eq ptr %2, null
  br i1 %3, label %dynamic_cast.bad_cast, label %dynamic_cast.end

dynamic_cast.bad_cast:                            ; preds = %if.end
  tail call void @__cxa_bad_cast() #26
  unreachable

dynamic_cast.end:                                 ; preds = %if.end
  %sourceURL_ = getelementptr inbounds i8, ptr %this, i64 16
  %sourceURL_2 = getelementptr inbounds i8, ptr %2, i64 16
  %call.i4 = tail call noundef i64 @_ZNKSt7__cxx1112basic_stringIcSt11char_traitsIcESaIcEE4sizeEv(ptr noundef nonnull align 8 dereferenceable(32) %sourceURL_) #23
  %call1.i = tail call noundef i64 @_ZNKSt7__cxx1112basic_stringIcSt11char_traitsIcESaIcEE4sizeEv(ptr noundef nonnull align 8 dereferenceable(32) %sourceURL_2) #23
  %cmp.i5 = icmp eq i64 %call.i4, %call1.i
  br i1 %cmp.i5, label %land.rhs.i, label %return

land.rhs.i:                                       ; preds = %dynamic_cast.end
  %call2.i = tail call noundef ptr @_ZNKSt7__cxx1112basic_stringIcSt11char_traitsIcESaIcEE4dataEv(ptr noundef nonnull align 8 dereferenceable(32) %sourceURL_) #23
  %call3.i = tail call noundef ptr @_ZNKSt7__cxx1112basic_stringIcSt11char_traitsIcESaIcEE4dataEv(ptr noundef nonnull align 8 dereferenceable(32) %sourceURL_2) #23
  %call4.i6 = tail call noundef i64 @_ZNKSt7__cxx1112basic_stringIcSt11char_traitsIcESaIcEE4sizeEv(ptr noundef nonnull align 8 dereferenceable(32) %sourceURL_) #23
  %cmp.i.i = icmp eq i64 %call4.i6, 0
  br i1 %cmp.i.i, label %land.lhs.true, label %_ZSteqIcEN9__gnu_cxx11__enable_ifIXsr9__is_charIT_EE7__valueEbE6__typeERKNSt7__cxx1112basic_stringIS2_St11char_traitsIS2_ESaIS2_EEESC_.exit

_ZSteqIcEN9__gnu_cxx11__enable_ifIXsr9__is_charIT_EE7__valueEbE6__typeERKNSt7__cxx1112basic_stringIS2_St11char_traitsIS2_ESaIS2_EEESC_.exit: ; preds = %land.rhs.i
  %bcmp.i = tail call i32 @bcmp(ptr %call2.i, ptr %call3.i, i64 %call4.i6)
  %4 = icmp eq i32 %bcmp.i, 0
  br i1 %4, label %land.lhs.true, label %return

land.lhs.true:                                    ; preds = %land.rhs.i, %_ZSteqIcEN9__gnu_cxx11__enable_ifIXsr9__is_charIT_EE7__valueEbE6__typeERKNSt7__cxx1112basic_stringIS2_St11char_traitsIS2_ESaIS2_EEESC_.exit
  %sourceHash_ = getelementptr inbounds i8, ptr %this, i64 48
  %sourceHash_4 = getelementptr inbounds i8, ptr %2, i64 48
  %bcmp.i.i.i.i.i = tail call i32 @bcmp(ptr noundef nonnull dereferenceable(20) %sourceHash_, ptr noundef nonnull dereferenceable(20) %sourceHash_4, i64 20)
  %tobool1.not.i.i.i.i.i = icmp eq i32 %bcmp.i.i.i.i.i, 0
  br i1 %tobool1.not.i.i.i.i.i, label %land.rhs, label %return

land.rhs:                                         ; preds = %land.lhs.true
  %sourceIsBytecode_ = getelementptr inbounds i8, ptr %this, i64 68
  %5 = load i8, ptr %sourceIsBytecode_, align 4
  %sourceIsBytecode_6 = getelementptr inbounds i8, ptr %2, i64 68
  %6 = load i8, ptr %sourceIsBytecode_6, align 4
  %7 = xor i8 %6, %5
  %8 = and i8 %7, 1
  %cmp = icmp eq i8 %8, 0
  br label %return

return:                                           ; preds = %dynamic_cast.end, %_ZSteqIcEN9__gnu_cxx11__enable_ifIXsr9__is_charIT_EE7__valueEbE6__typeERKNSt7__cxx1112basic_stringIS2_St11char_traitsIS2_ESaIS2_EEESC_.exit, %land.lhs.true, %land.rhs, %entry
  %retval.0 = phi i1 [ false, %entry ], [ false, %land.lhs.true ], [ false, %_ZSteqIcEN9__gnu_cxx11__enable_ifIXsr9__is_charIT_EE7__valueEbE6__typeERKNSt7__cxx1112basic_stringIS2_St11char_traitsIS2_ESaIS2_EEESC_.exit ], [ %cmp, %land.rhs ], [ false, %dynamic_cast.end ]
  ret i1 %retval.0
}